target datalayout = "e-m:e-p270:32:32-p271:32:32-p272:64:64-i64:64-i128:128-f80:128-n8:16:32:64-S128"
target triple = "x86_64-pc-linux-gnu"

%struct.pm_buffer_t = type { i64, i64, ptr }

; Function Attrs: nounwind sspstrong uwtable
define hidden i64 @pm_buffer_index(ptr noundef %0, i8 noundef signext %1) #0 {
  %3 = alloca ptr, align 8
  %4 = alloca i8, align 1
  %5 = alloca ptr, align 8
  store ptr %0, ptr %3, align 8, !tbaa !7
  store i8 %1, ptr %4, align 1, !tbaa !25
  call void @llvm.lifetime.start.p0(i64 8, ptr %5) #13
  %6 = load ptr, ptr %3, align 8, !tbaa !7
  %7 = getelementptr inbounds nuw %struct.pm_buffer_t, ptr %6, i32 0, i32 2
  %8 = load ptr, ptr %7, align 8, !tbaa !17
  %9 = load i8, ptr %4, align 1, !tbaa !25
  %10 = sext i8 %9 to i32
  %11 = load ptr, ptr %3, align 8, !tbaa !7
  %12 = getelementptr inbounds nuw %struct.pm_buffer_t, ptr %11, i32 0, i32 0
  %13 = load i64, ptr %12, align 8, !tbaa !13
  %14 = call ptr @memchr(ptr noundef %8, i32 noundef %10, i64 noundef %13) #15
  store ptr %14, ptr %5, align 8, !tbaa !22
  %15 = load ptr, ptr %5, align 8, !tbaa !22
  %16 = icmp eq ptr %15, null
  br i1 %16, label %17, label %18

17:                                               ; preds = %2
  br label %26

18:                                               ; preds = %2
  %19 = load ptr, ptr %5, align 8, !tbaa !22
  %20 = load ptr, ptr %3, align 8, !tbaa !7
  %21 = getelementptr inbounds nuw %struct.pm_buffer_t, ptr %20, i32 0, i32 2
  %22 = load ptr, ptr %21, align 8, !tbaa !17
  %23 = ptrtoint ptr %19 to i64
  %24 = ptrtoint ptr %22 to i64
  %25 = sub i64 %23, %24
  br label %26

26:                                               ; preds = %18, %17
  %27 = phi i64 [ -1, %17 ], [ %25, %18 ]
  call void @llvm.lifetime.end.p0(i64 8, ptr %5) #13
  ret i64 %27
}