; Function Attrs: mustprogress nofree nounwind sspstrong willreturn memory(read, inaccessiblemem: none) uwtable
define hidden i64 @pm_buffer_index(ptr noundef readonly captures(none) %0, i8 noundef signext %1) local_unnamed_addr #9 {
  %3 = getelementptr inbounds nuw i8, ptr %0, i64 16
  %4 = load ptr, ptr %3, align 8, !tbaa !15
  %5 = sext i8 %1 to i32
  %6 = load i64, ptr %0, align 8, !tbaa !7
  %7 = tail call ptr @memchr(ptr noundef %4, i32 noundef %5, i64 noundef %6) #20
  %8 = icmp eq ptr %7, null
  %9 = ptrtoint ptr %7 to i64
  %10 = ptrtoint ptr %4 to i64
  %11 = sub i64 %9, %10
  %12 = select i1 %8, i64 -1, i64 %11
  ret i64 %12
}